; ModuleID = '24/908.c'
source_filename = "24/908.c"
target datalayout = "e-m:e-p270:32:32-p271:32:32-p272:64:64-i64:64-f80:128-n8:16:32:64-S128"
target triple = "x86_64-pc-linux-gnu"

@.str = private unnamed_addr constant [6 x i8] c"%s\0A%s\00", align 1

; Function Attrs: noinline nounwind uwtable
define dso_local i32 @main() #0 {
  %1 = alloca i32, align 4
  %2 = alloca [10000 x i8], align 16
  %3 = alloca [50 x [100 x i8]], align 16
  %4 = alloca i32, align 4
  %5 = alloca i32, align 4
  %6 = alloca i32, align 4
  %7 = alloca i32, align 4
  %8 = alloca i32, align 4
  %9 = alloca i32, align 4
  %10 = alloca i32, align 4
  %11 = alloca i32, align 4
  store i32 0, i32* %1, align 4
  %12 = getelementptr inbounds [10000 x i8], [10000 x i8]* %2, i64 0, i64 0
  %13 = call i32 (i8*, ...) bitcast (i32 (...)* @gets to i32 (i8*, ...)*)(i8* %12)
  store i32 0, i32* %6, align 4
  store i32 0, i32* %7, align 4
  store i32 0, i32* %9, align 4
  store i32 0, i32* %11, align 4
  %14 = getelementptr inbounds [10000 x i8], [10000 x i8]* %2, i64 0, i64 0
  %15 = call i64 @strlen(i8* %14) #3
  %16 = trunc i64 %15 to i32
  store i32 %16, i32* %4, align 4
  store i32 0, i32* %5, align 4
  br label %17

17:                                               ; preds = %70, %0
  %18 = load i32, i32* %5, align 4
  %19 = load i32, i32* %4, align 4
  %20 = icmp slt i32 %18, %19
  br i1 %20, label %21, label %73

21:                                               ; preds = %17
  %22 = load i32, i32* %5, align 4
  %23 = sext i32 %22 to i64
  %24 = getelementptr inbounds [10000 x i8], [10000 x i8]* %2, i64 0, i64 %23
  %25 = load i8, i8* %24, align 1
  %26 = sext i8 %25 to i32
  %27 = icmp ne i32 %26, 32
  br i1 %27, label %28, label %41

28:                                               ; preds = %21
  %29 = load i32, i32* %5, align 4
  %30 = sext i32 %29 to i64
  %31 = getelementptr inbounds [10000 x i8], [10000 x i8]* %2, i64 0, i64 %30
  %32 = load i8, i8* %31, align 1
  %33 = load i32, i32* %6, align 4
  %34 = sext i32 %33 to i64
  %35 = getelementptr inbounds [50 x [100 x i8]], [50 x [100 x i8]]* %3, i64 0, i64 %34
  %36 = load i32, i32* %7, align 4
  %37 = sext i32 %36 to i64
  %38 = getelementptr inbounds [100 x i8], [100 x i8]* %35, i64 0, i64 %37
  store i8 %32, i8* %38, align 1
  %39 = load i32, i32* %7, align 4
  %40 = add nsw i32 %39, 1
  store i32 %40, i32* %7, align 4
  br label %41

41:                                               ; preds = %28, %21
  %42 = load i32, i32* %5, align 4
  %43 = sext i32 %42 to i64
  %44 = getelementptr inbounds [10000 x i8], [10000 x i8]* %2, i64 0, i64 %43
  %45 = load i8, i8* %44, align 1
  %46 = sext i8 %45 to i32
  %47 = icmp eq i32 %46, 32
  br i1 %47, label %48, label %57

48:                                               ; preds = %41
  %49 = load i32, i32* %6, align 4
  %50 = sext i32 %49 to i64
  %51 = getelementptr inbounds [50 x [100 x i8]], [50 x [100 x i8]]* %3, i64 0, i64 %50
  %52 = load i32, i32* %7, align 4
  %53 = sext i32 %52 to i64
  %54 = getelementptr inbounds [100 x i8], [100 x i8]* %51, i64 0, i64 %53
  store i8 0, i8* %54, align 1
  %55 = load i32, i32* %6, align 4
  %56 = add nsw i32 %55, 1
  store i32 %56, i32* %6, align 4
  store i32 0, i32* %7, align 4
  br label %57

57:                                               ; preds = %48, %41
  %58 = load i32, i32* %5, align 4
  %59 = load i32, i32* %4, align 4
  %60 = sub nsw i32 %59, 1
  %61 = icmp eq i32 %58, %60
  br i1 %61, label %62, label %69

62:                                               ; preds = %57
  %63 = load i32, i32* %6, align 4
  %64 = sext i32 %63 to i64
  %65 = getelementptr inbounds [50 x [100 x i8]], [50 x [100 x i8]]* %3, i64 0, i64 %64
  %66 = load i32, i32* %7, align 4
  %67 = sext i32 %66 to i64
  %68 = getelementptr inbounds [100 x i8], [100 x i8]* %65, i64 0, i64 %67
  store i8 0, i8* %68, align 1
  br label %69

69:                                               ; preds = %62, %57
  br label %70

70:                                               ; preds = %69
  %71 = load i32, i32* %5, align 4
  %72 = add nsw i32 %71, 1
  store i32 %72, i32* %5, align 4
  br label %17

73:                                               ; preds = %17
  %74 = getelementptr inbounds [50 x [100 x i8]], [50 x [100 x i8]]* %3, i64 0, i64 0
  %75 = getelementptr inbounds [100 x i8], [100 x i8]* %74, i64 0, i64 0
  %76 = call i64 @strlen(i8* %75) #3
  %77 = trunc i64 %76 to i32
  store i32 %77, i32* %8, align 4
  %78 = getelementptr inbounds [50 x [100 x i8]], [50 x [100 x i8]]* %3, i64 0, i64 0
  %79 = getelementptr inbounds [100 x i8], [100 x i8]* %78, i64 0, i64 0
  %80 = call i64 @strlen(i8* %79) #3
  %81 = trunc i64 %80 to i32
  store i32 %81, i32* %10, align 4
  store i32 0, i32* %5, align 4
  br label %82

82:                                               ; preds = %121, %73
  %83 = load i32, i32* %5, align 4
  %84 = load i32, i32* %6, align 4
  %85 = icmp sle i32 %83, %84
  br i1 %85, label %86, label %124

86:                                               ; preds = %82
  %87 = load i32, i32* %8, align 4
  %88 = sext i32 %87 to i64
  %89 = load i32, i32* %5, align 4
  %90 = sext i32 %89 to i64
  %91 = getelementptr inbounds [50 x [100 x i8]], [50 x [100 x i8]]* %3, i64 0, i64 %90
  %92 = getelementptr inbounds [100 x i8], [100 x i8]* %91, i64 0, i64 0
  %93 = call i64 @strlen(i8* %92) #3
  %94 = icmp ult i64 %88, %93
  br i1 %94, label %95, label %103

95:                                               ; preds = %86
  %96 = load i32, i32* %5, align 4
  %97 = sext i32 %96 to i64
  %98 = getelementptr inbounds [50 x [100 x i8]], [50 x [100 x i8]]* %3, i64 0, i64 %97
  %99 = getelementptr inbounds [100 x i8], [100 x i8]* %98, i64 0, i64 0
  %100 = call i64 @strlen(i8* %99) #3
  %101 = trunc i64 %100 to i32
  store i32 %101, i32* %8, align 4
  %102 = load i32, i32* %5, align 4
  store i32 %102, i32* %9, align 4
  br label %103

103:                                              ; preds = %95, %86
  %104 = load i32, i32* %10, align 4
  %105 = sext i32 %104 to i64
  %106 = load i32, i32* %5, align 4
  %107 = sext i32 %106 to i64
  %108 = getelementptr inbounds [50 x [100 x i8]], [50 x [100 x i8]]* %3, i64 0, i64 %107
  %109 = getelementptr inbounds [100 x i8], [100 x i8]* %108, i64 0, i64 0
  %110 = call i64 @strlen(i8* %109) #3
  %111 = icmp ugt i64 %105, %110
  br i1 %111, label %112, label %120

112:                                              ; preds = %103
  %113 = load i32, i32* %5, align 4
  %114 = sext i32 %113 to i64
  %115 = getelementptr inbounds [50 x [100 x i8]], [50 x [100 x i8]]* %3, i64 0, i64 %114
  %116 = getelementptr inbounds [100 x i8], [100 x i8]* %115, i64 0, i64 0
  %117 = call i64 @strlen(i8* %116) #3
  %118 = trunc i64 %117 to i32
  store i32 %118, i32* %10, align 4
  %119 = load i32, i32* %5, align 4
  store i32 %119, i32* %11, align 4
  br label %120

120:                                              ; preds = %112, %103
  br label %121

121:                                              ; preds = %120
  %122 = load i32, i32* %5, align 4
  %123 = add nsw i32 %122, 1
  store i32 %123, i32* %5, align 4
  br label %82

124:                                              ; preds = %82
  %125 = load i32, i32* %9, align 4
  %126 = sext i32 %125 to i64
  %127 = getelementptr inbounds [50 x [100 x i8]], [50 x [100 x i8]]* %3, i64 0, i64 %126
  %128 = getelementptr inbounds [100 x i8], [100 x i8]* %127, i64 0, i64 0
  %129 = load i32, i32* %11, align 4
  %130 = sext i32 %129 to i64
  %131 = getelementptr inbounds [50 x [100 x i8]], [50 x [100 x i8]]* %3, i64 0, i64 %130
  %132 = getelementptr inbounds [100 x i8], [100 x i8]* %131, i64 0, i64 0
  %133 = call i32 (i8*, ...) @printf(i8* getelementptr inbounds ([6 x i8], [6 x i8]* @.str, i64 0, i64 0), i8* %128, i8* %132)
  ret i32 0
}

declare dso_local i32 @gets(...) #1

; Function Attrs: nounwind readonly
declare dso_local i64 @strlen(i8*) #2

declare dso_local i32 @printf(i8*, ...) #1


!llvm.module.flags = !{!0}
!llvm.ident = !{!1}

!0 = !{i32 1, !"wchar_size", i32 4}
!1 = !{!"clang version 10.0.0-4ubuntu1 "}
